target datalayout = "e-m:e-p270:32:32-p271:32:32-p272:64:64-i64:64-i128:128-f80:128-n8:16:32:64-S128"
target triple = "x86_64-pc-linux-gnu"

@.str = private unnamed_addr constant [58 x i8] c"../openssl/providers/implementations/ciphers/cipher_aes.c\00", align 1

; Function Attrs: nounwind uwtable
define internal ptr @aes_192_cfb1_newctx(ptr noundef %0) #0 {
  %2 = alloca ptr, align 8
  %3 = alloca ptr, align 8
  store ptr %0, ptr %2, align 8, !tbaa !3
  call void @llvm.lifetime.start.p0(i64 8, ptr %3) #3
  %4 = call i32 @ossl_prov_is_running()
  %5 = icmp ne i32 %4, 0
  br i1 %5, label %6, label %8

6:                                                ; preds = %1
  %7 = call noalias ptr @CRYPTO_zalloc(i64 noundef 448, ptr noundef @.str, i32 noundef 77)
  br label %9

8:                                                ; preds = %1
  br label %9

9:                                                ; preds = %8, %6
  %10 = phi ptr [ %7, %6 ], [ null, %8 ]
  store ptr %10, ptr %3, align 8, !tbaa !7
  %11 = load ptr, ptr %3, align 8, !tbaa !7
  %12 = icmp ne ptr %11, null
  br i1 %12, label %13, label %17

13:                                               ; preds = %9
  %14 = load ptr, ptr %3, align 8, !tbaa !7
  %15 = call ptr @ossl_prov_cipher_hw_aes_cfb1(i64 noundef 192)
  %16 = load ptr, ptr %2, align 8, !tbaa !3
  call void @ossl_cipher_generic_initkey(ptr noundef %14, i64 noundef 192, i64 noundef 8, i64 noundef 128, i32 noundef 3, i64 noundef 0, ptr noundef %15, ptr noundef %16)
  br label %17

17:                                               ; preds = %13, %9
  %18 = load ptr, ptr %3, align 8, !tbaa !7
  call void @llvm.lifetime.end.p0(i64 8, ptr %3) #3
  ret ptr %18
}